(dp0
S'clickid'
p1
S'0f0c5990e86a1365ffffffff0dc87bc6'
p2
sS'version'
p3
S'0'
p4
sS'rdr'
p5
S'1'
p6
sS'errno_xx'
p7
g4
sS'extend_item'
p8
(lp9
sS'pass_ret'
p10
S'-1,-1,-1,-1,-1,-1,-1,-1,-1,-1,-1,-1'
p11
sS'rule_ret'
p12
S'0,-1,-1,-1,-1,-1,-1,-1,-1,-1,-1,-1'
p13
s.